target datalayout = "e-m:e-p270:32:32-p271:32:32-p272:64:64-i64:64-i128:128-f80:128-n8:16:32:64-S128"
target triple = "x86_64-pc-linux-gnu"

%"struct.Yosys::RTLIL::IdString" = type { i32 }
%"class.std::vector.29" = type { %"struct.std::_Vector_base.30" }
%"struct.std::_Vector_base.30" = type { %"struct.std::_Vector_base<int, std::allocator<int>>::_Vector_impl" }
%"struct.std::_Vector_base<int, std::allocator<int>>::_Vector_impl" = type { %"struct.std::_Vector_base<int, std::allocator<int>>::_Vector_impl_data" }
%"struct.std::_Vector_base<int, std::allocator<int>>::_Vector_impl_data" = type { ptr, ptr, ptr }
%"struct.(anonymous namespace)::SimInstance::mem_state_t" = type { ptr, %"class.std::vector.401", %"class.std::vector.401", %"class.std::vector.401", %"class.std::vector.401", %"struct.Yosys::RTLIL::Const" }
%"class.std::vector.401" = type { %"struct.std::_Vector_base.402" }
%"struct.std::_Vector_base.402" = type { %"struct.std::_Vector_base<Yosys::RTLIL::Const, std::allocator<Yosys::RTLIL::Const>>::_Vector_impl" }
%"struct.std::_Vector_base<Yosys::RTLIL::Const, std::allocator<Yosys::RTLIL::Const>>::_Vector_impl" = type { %"struct.std::_Vector_base<Yosys::RTLIL::Const, std::allocator<Yosys::RTLIL::Const>>::_Vector_impl_data" }
%"struct.std::_Vector_base<Yosys::RTLIL::Const, std::allocator<Yosys::RTLIL::Const>>::_Vector_impl_data" = type { ptr, ptr, ptr }
%"struct.Yosys::RTLIL::Const" = type { i32, %"class.std::vector.166" }
%"class.std::vector.166" = type { %"struct.std::_Vector_base.167" }
%"struct.std::_Vector_base.167" = type { %"struct.std::_Vector_base<Yosys::RTLIL::State, std::allocator<Yosys::RTLIL::State>>::_Vector_impl" }
%"struct.std::_Vector_base<Yosys::RTLIL::State, std::allocator<Yosys::RTLIL::State>>::_Vector_impl" = type { %"struct.std::_Vector_base<Yosys::RTLIL::State, std::allocator<Yosys::RTLIL::State>>::_Vector_impl_data" }
%"struct.std::_Vector_base<Yosys::RTLIL::State, std::allocator<Yosys::RTLIL::State>>::_Vector_impl_data" = type { ptr, ptr, ptr }
%"struct.Yosys::hashlib::dict<Yosys::RTLIL::IdString, (anonymous namespace)::SimInstance::mem_state_t>::entry_t" = type <{ %"struct.std::pair.448", i32, [4 x i8] }>
%"struct.std::pair.448" = type { %"struct.Yosys::RTLIL::IdString", %"struct.(anonymous namespace)::SimInstance::mem_state_t" }

@_ZN5Yosys5RTLIL8IdString24global_refcount_storage_E = external global %"class.std::vector.29", align 8
@_ZN5Yosys5RTLIL8IdString17destruct_guard_okE = external global i8, align 1

; Function Attrs: mustprogress nounwind uwtable
define linkonce_odr noundef nonnull align 4 dereferenceable(4) ptr @_ZNSt6vectorIiSaIiEEixEm(ptr noundef nonnull align 8 dereferenceable(24) %0, i64 noundef %1) #5 comdat align 2 {
  %3 = alloca ptr, align 8
  %4 = alloca i64, align 8
  store ptr %0, ptr %3, align 8
  store i64 %1, ptr %4, align 8
  %5 = load ptr, ptr %3, align 8
  %6 = getelementptr inbounds %"struct.std::_Vector_base.30", ptr %5, i32 0, i32 0
  %7 = getelementptr inbounds %"struct.std::_Vector_base<int, std::allocator<int>>::_Vector_impl_data", ptr %6, i32 0, i32 0
  %8 = load ptr, ptr %7, align 8
  %9 = load i64, ptr %4, align 8
  %10 = getelementptr inbounds i32, ptr %8, i64 %9
  ret ptr %10
}

; Function Attrs: mustprogress uwtable
define linkonce_odr void @_ZN5Yosys5RTLIL8IdString13put_referenceEi(i32 noundef %0) #4 comdat align 2 {
  %2 = alloca i32, align 4
  %3 = alloca ptr, align 8
  store i32 %0, ptr %2, align 4
  %4 = load i8, ptr @_ZN5Yosys5RTLIL8IdString17destruct_guard_okE, align 1
  %5 = trunc i8 %4 to i1
  br i1 %5, label %6, label %9

6:                                                ; preds = %1
  %7 = load i32, ptr %2, align 4
  %8 = icmp ne i32 %7, 0
  br i1 %8, label %10, label %9

9:                                                ; preds = %6, %1
  br label %23

10:                                               ; preds = %6
  %11 = load i32, ptr %2, align 4
  %12 = sext i32 %11 to i64
  %13 = call noundef nonnull align 4 dereferenceable(4) ptr @_ZNSt6vectorIiSaIiEEixEm(ptr noundef nonnull align 8 dereferenceable(24) @_ZN5Yosys5RTLIL8IdString24global_refcount_storage_E, i64 noundef %12) #3
  store ptr %13, ptr %3, align 8
  %14 = load ptr, ptr %3, align 8
  %15 = load i32, ptr %14, align 4
  %16 = add nsw i32 %15, -1
  store i32 %16, ptr %14, align 4
  %17 = icmp sgt i32 %16, 0
  br i1 %17, label %18, label %19

18:                                               ; preds = %10
  br label %23

19:                                               ; preds = %10
  br label %20

20:                                               ; preds = %19
  br label %21

21:                                               ; preds = %20
  %22 = load i32, ptr %2, align 4
  call void @_ZN5Yosys5RTLIL8IdString14free_referenceEi(i32 noundef %22)
  br label %23

23:                                               ; preds = %21, %18, %9
  ret void
}

; Function Attrs: mustprogress nounwind uwtable
define linkonce_odr void @_ZN5Yosys5RTLIL8IdStringD2Ev(ptr noundef nonnull align 4 dereferenceable(4) %0) unnamed_addr #5 comdat align 2 personality ptr @__gxx_personality_v0 {
  %2 = alloca ptr, align 8
  store ptr %0, ptr %2, align 8
  %3 = load ptr, ptr %2, align 8
  %4 = getelementptr inbounds %"struct.Yosys::RTLIL::IdString", ptr %3, i32 0, i32 0
  %5 = load i32, ptr %4, align 4
  invoke void @_ZN5Yosys5RTLIL8IdString13put_referenceEi(i32 noundef %5)
          to label %6 unwind label %7

6:                                                ; preds = %1
  ret void

7:                                                ; preds = %1
  %8 = landingpad { ptr, i32 }
          catch ptr null
  %9 = extractvalue { ptr, i32 } %8, 0
  call void @__clang_call_terminate(ptr %9) #19
  unreachable
}

; Function Attrs: mustprogress nounwind uwtable
define internal void @_ZNSt4pairIN5Yosys5RTLIL8IdStringEN12_GLOBAL__N_111SimInstance11mem_state_tEED2Ev(ptr noundef nonnull align 8 dereferenceable(144) %0) unnamed_addr #5 align 2 {
  %2 = alloca ptr, align 8
  store ptr %0, ptr %2, align 8
  %3 = load ptr, ptr %2, align 8
  %4 = getelementptr inbounds %"struct.std::pair.448", ptr %3, i32 0, i32 1
  call void @_ZN12_GLOBAL__N_111SimInstance11mem_state_tD2Ev(ptr noundef nonnull align 8 dereferenceable(136) %4) #3
  %5 = getelementptr inbounds %"struct.std::pair.448", ptr %3, i32 0, i32 0
  call void @_ZN5Yosys5RTLIL8IdStringD2Ev(ptr noundef nonnull align 4 dereferenceable(4) %5) #3
  ret void
}

; Function Attrs: mustprogress nounwind uwtable
define internal void @_ZN5Yosys7hashlib4dictINS_5RTLIL8IdStringEN12_GLOBAL__N_111SimInstance11mem_state_tENS0_8hash_opsIS3_EEE7entry_tD2Ev(ptr noundef nonnull align 8 dereferenceable(148) %0) unnamed_addr #5 align 2 {
  %2 = alloca ptr, align 8
  store ptr %0, ptr %2, align 8
  %3 = load ptr, ptr %2, align 8
  %4 = getelementptr inbounds %"struct.Yosys::hashlib::dict<Yosys::RTLIL::IdString, (anonymous namespace)::SimInstance::mem_state_t>::entry_t", ptr %3, i32 0, i32 0
  call void @_ZNSt4pairIN5Yosys5RTLIL8IdStringEN12_GLOBAL__N_111SimInstance11mem_state_tEED2Ev(ptr noundef nonnull align 8 dereferenceable(144) %4) #3
  ret void
}

; Function Attrs: mustprogress nounwind uwtable
define internal void @_ZNSt15__new_allocatorIN5Yosys7hashlib4dictINS0_5RTLIL8IdStringEN12_GLOBAL__N_111SimInstance11mem_state_tENS1_8hash_opsIS4_EEE7entry_tEE7destroyISB_EEvPT_(ptr noundef nonnull align 1 dereferenceable(1) %0, ptr noundef %1) #5 align 2 {
  %3 = alloca ptr, align 8
  %4 = alloca ptr, align 8
  store ptr %0, ptr %3, align 8
  store ptr %1, ptr %4, align 8
  %5 = load ptr, ptr %4, align 8
  call void @_ZN5Yosys7hashlib4dictINS_5RTLIL8IdStringEN12_GLOBAL__N_111SimInstance11mem_state_tENS0_8hash_opsIS3_EEE7entry_tD2Ev(ptr noundef nonnull align 8 dereferenceable(148) %5) #3
  ret void
}

; Function Attrs: mustprogress nounwind uwtable
define internal void @_ZNSt16allocator_traitsISaIN5Yosys7hashlib4dictINS0_5RTLIL8IdStringEN12_GLOBAL__N_111SimInstance11mem_state_tENS1_8hash_opsIS4_EEE7entry_tEEE7destroyISB_EEvRSC_PT_(ptr noundef nonnull align 1 dereferenceable(1) %0, ptr noundef %1) #5 align 2 {
  %3 = alloca ptr, align 8
  %4 = alloca ptr, align 8
  store ptr %0, ptr %3, align 8
  store ptr %1, ptr %4, align 8
  %5 = load ptr, ptr %3, align 8
  %6 = load ptr, ptr %4, align 8
  call void @_ZNSt15__new_allocatorIN5Yosys7hashlib4dictINS0_5RTLIL8IdStringEN12_GLOBAL__N_111SimInstance11mem_state_tENS1_8hash_opsIS4_EEE7entry_tEE7destroyISB_EEvPT_(ptr noundef nonnull align 1 dereferenceable(1) %5, ptr noundef %6) #3
  ret void
}