; Function Attrs: mustprogress nounwind uwtable
define internal fastcc void @_ZNSt16allocator_traitsISaIN5Yosys7hashlib4dictINS0_5RTLIL8IdStringEN12_GLOBAL__N_111SimInstance11mem_state_tENS1_8hash_opsIS4_EEE7entry_tEEE7destroyISB_EEvRSC_PT_(ptr nocapture noundef readonly %0) unnamed_addr #3 align 2 personality ptr @__gxx_personality_v0 {
  %2 = getelementptr inbounds i8, ptr %0, i64 8
  tail call fastcc void @_ZN12_GLOBAL__N_111SimInstance11mem_state_tD2Ev(ptr noundef nonnull align 8 dereferenceable(136) %2) #31
  %3 = load i32, ptr %0, align 4
  %4 = load i8, ptr @_ZN5Yosys5RTLIL8IdString17destruct_guard_okE, align 1
  %5 = and i8 %4, 1
  %6 = icmp ne i8 %5, 0
  %7 = icmp ne i32 %3, 0
  %or.cond.i.i.i.i.i = and i1 %7, %6
  br i1 %or.cond.i.i.i.i.i, label %8, label %_ZNSt15__new_allocatorIN5Yosys7hashlib4dictINS0_5RTLIL8IdStringEN12_GLOBAL__N_111SimInstance11mem_state_tENS1_8hash_opsIS4_EEE7entry_tEE7destroyISB_EEvPT_.exit

8:                                                ; preds = %1
  %9 = sext i32 %3 to i64
  %10 = load ptr, ptr @_ZN5Yosys5RTLIL8IdString24global_refcount_storage_E, align 8
  %11 = getelementptr inbounds i32, ptr %10, i64 %9
  %12 = load i32, ptr %11, align 4
  %13 = add nsw i32 %12, -1
  store i32 %13, ptr %11, align 4
  %14 = icmp sgt i32 %12, 1
  br i1 %14, label %_ZNSt15__new_allocatorIN5Yosys7hashlib4dictINS0_5RTLIL8IdStringEN12_GLOBAL__N_111SimInstance11mem_state_tENS1_8hash_opsIS4_EEE7entry_tEE7destroyISB_EEvPT_.exit, label %15

15:                                               ; preds = %8
  invoke void @_ZN5Yosys5RTLIL8IdString14free_referenceEi(i32 noundef %3)
          to label %_ZNSt15__new_allocatorIN5Yosys7hashlib4dictINS0_5RTLIL8IdStringEN12_GLOBAL__N_111SimInstance11mem_state_tENS1_8hash_opsIS4_EEE7entry_tEE7destroyISB_EEvPT_.exit unwind label %16

16:                                               ; preds = %15
  %17 = landingpad { ptr, i32 }
          catch ptr null
  %18 = extractvalue { ptr, i32 } %17, 0
  tail call void @__clang_call_terminate(ptr %18) #30
  unreachable

_ZNSt15__new_allocatorIN5Yosys7hashlib4dictINS0_5RTLIL8IdStringEN12_GLOBAL__N_111SimInstance11mem_state_tENS1_8hash_opsIS4_EEE7entry_tEE7destroyISB_EEvPT_.exit: ; preds = %1, %8, %15
  ret void
}